target datalayout = "e-m:e-p270:32:32-p271:32:32-p272:64:64-i64:64-i128:128-f80:128-n8:16:32:64-S128"
target triple = "x86_64-pc-linux-gnu"

%class.buffer = type { ptr, i32, i32, [64 x i8] }

; Function Attrs: mustprogress nounwind uwtable
define linkonce_odr hidden noundef nonnull align 4 dereferenceable(4) ptr @_ZN6bufferIjLb0ELj16EEixEj(ptr noundef nonnull align 8 dereferenceable(80) %0, i32 noundef %1) #6 comdat align 2 {
  %3 = alloca ptr, align 8
  %4 = alloca i32, align 4
  store ptr %0, ptr %3, align 8, !tbaa !39
  store i32 %1, ptr %4, align 4, !tbaa !10
  %5 = load ptr, ptr %3, align 8
  %6 = getelementptr inbounds nuw %class.buffer, ptr %5, i32 0, i32 0
  %7 = load ptr, ptr %6, align 8, !tbaa !41
  %8 = load i32, ptr %4, align 4, !tbaa !10
  %9 = zext i32 %8 to i64
  %10 = getelementptr inbounds nuw i32, ptr %7, i64 %9
  ret ptr %10
}

; Function Attrs: mustprogress nounwind uwtable
define linkonce_odr hidden noundef i32 @_ZNK6bufferIjLb0ELj16EE4sizeEv(ptr noundef nonnull align 8 dereferenceable(80) %0) #6 comdat align 2 {
  %2 = alloca ptr, align 8
  store ptr %0, ptr %2, align 8, !tbaa !39
  %3 = load ptr, ptr %2, align 8
  %4 = getelementptr inbounds nuw %class.buffer, ptr %3, i32 0, i32 1
  %5 = load i32, ptr %4, align 8, !tbaa !49
  ret i32 %5
}

; Function Attrs: mustprogress uwtable
define hidden void @_ZNK11mpn_manager15div_unnormalizeER7sbufferIjLj16EES2_jPj(ptr noundef nonnull align 1 dereferenceable(1) %0, ptr noundef nonnull align 8 dereferenceable(80) %1, ptr noundef nonnull align 8 dereferenceable(80) %2, i32 noundef %3, ptr noundef %4) #4 align 2 {
  %6 = alloca ptr, align 8
  %7 = alloca ptr, align 8
  %8 = alloca ptr, align 8
  %9 = alloca i32, align 4
  %10 = alloca ptr, align 8
  %11 = alloca i32, align 4
  %12 = alloca i32, align 4
  store ptr %0, ptr %6, align 8, !tbaa !3
  store ptr %1, ptr %7, align 8, !tbaa !31
  store ptr %2, ptr %8, align 8, !tbaa !31
  store i32 %3, ptr %9, align 4, !tbaa !10
  store ptr %4, ptr %10, align 8, !tbaa !8
  %13 = load i32, ptr %9, align 4, !tbaa !10
  %14 = icmp eq i32 %13, 0
  br i1 %14, label %15, label %35

15:                                               ; preds = %5
  call void @llvm.lifetime.start.p0(i64 4, ptr %11) #3
  store i32 0, ptr %11, align 4, !tbaa !10
  br label %16

16:                                               ; preds = %31, %15
  %17 = load i32, ptr %11, align 4, !tbaa !10
  %18 = load ptr, ptr %8, align 8, !tbaa !31
  %19 = call noundef i32 @_ZNK6bufferIjLb0ELj16EE4sizeEv(ptr noundef nonnull align 8 dereferenceable(80) %18)
  %20 = icmp ult i32 %17, %19
  br i1 %20, label %22, label %21

21:                                               ; preds = %16
  call void @llvm.lifetime.end.p0(i64 4, ptr %11) #3
  br label %34

22:                                               ; preds = %16
  %23 = load ptr, ptr %7, align 8, !tbaa !31
  %24 = load i32, ptr %11, align 4, !tbaa !10
  %25 = call noundef nonnull align 4 dereferenceable(4) ptr @_ZN6bufferIjLb0ELj16EEixEj(ptr noundef nonnull align 8 dereferenceable(80) %23, i32 noundef %24)
  %26 = load i32, ptr %25, align 4, !tbaa !10
  %27 = load ptr, ptr %10, align 8, !tbaa !8
  %28 = load i32, ptr %11, align 4, !tbaa !10
  %29 = zext i32 %28 to i64
  %30 = getelementptr inbounds nuw i32, ptr %27, i64 %29
  store i32 %26, ptr %30, align 4, !tbaa !10
  br label %31

31:                                               ; preds = %22
  %32 = load i32, ptr %11, align 4, !tbaa !10
  %33 = add i32 %32, 1
  store i32 %33, ptr %11, align 4, !tbaa !10
  br label %16, !llvm.loop !45

34:                                               ; preds = %21
  br label %93

35:                                               ; preds = %5
  call void @llvm.lifetime.start.p0(i64 4, ptr %12) #3
  store i32 0, ptr %12, align 4, !tbaa !10
  br label %36

36:                                               ; preds = %75, %35
  %37 = load i32, ptr %12, align 4, !tbaa !10
  %38 = load ptr, ptr %8, align 8, !tbaa !31
  %39 = call noundef i32 @_ZNK6bufferIjLb0ELj16EE4sizeEv(ptr noundef nonnull align 8 dereferenceable(80) %38)
  %40 = sub i32 %39, 1
  %41 = icmp ult i32 %37, %40
  br i1 %41, label %43, label %42

42:                                               ; preds = %36
  call void @llvm.lifetime.end.p0(i64 4, ptr %12) #3
  br label %78

43:                                               ; preds = %36
  %44 = load ptr, ptr %7, align 8, !tbaa !31
  %45 = load i32, ptr %12, align 4, !tbaa !10
  %46 = call noundef nonnull align 4 dereferenceable(4) ptr @_ZN6bufferIjLb0ELj16EEixEj(ptr noundef nonnull align 8 dereferenceable(80) %44, i32 noundef %45)
  %47 = load i32, ptr %46, align 4, !tbaa !10
  %48 = load i32, ptr %9, align 4, !tbaa !10
  %49 = lshr i32 %47, %48
  %50 = load ptr, ptr %7, align 8, !tbaa !31
  %51 = load i32, ptr %12, align 4, !tbaa !10
  %52 = add i32 %51, 1
  %53 = call noundef nonnull align 4 dereferenceable(4) ptr @_ZN6bufferIjLb0ELj16EEixEj(ptr noundef nonnull align 8 dereferenceable(80) %50, i32 noundef %52)
  %54 = load i32, ptr %53, align 4, !tbaa !10
  %55 = load i32, ptr %9, align 4, !tbaa !10
  %56 = zext i32 %55 to i64
  %57 = sub i64 32, %56
  %58 = trunc i64 %57 to i32
  %59 = shl i32 %54, %58
  %60 = load i32, ptr %9, align 4, !tbaa !10
  %61 = zext i32 %60 to i64
  %62 = sub i64 32, %61
  %63 = trunc i64 %62 to i32
  %64 = lshr i32 %59, %63
  %65 = load i32, ptr %9, align 4, !tbaa !10
  %66 = zext i32 %65 to i64
  %67 = sub i64 32, %66
  %68 = trunc i64 %67 to i32
  %69 = shl i32 %64, %68
  %70 = or i32 %49, %69
  %71 = load ptr, ptr %10, align 8, !tbaa !8
  %72 = load i32, ptr %12, align 4, !tbaa !10
  %73 = zext i32 %72 to i64
  %74 = getelementptr inbounds nuw i32, ptr %71, i64 %73
  store i32 %70, ptr %74, align 4, !tbaa !10
  br label %75

75:                                               ; preds = %43
  %76 = load i32, ptr %12, align 4, !tbaa !10
  %77 = add i32 %76, 1
  store i32 %77, ptr %12, align 4, !tbaa !10
  br label %36, !llvm.loop !46

78:                                               ; preds = %42
  %79 = load ptr, ptr %7, align 8, !tbaa !31
  %80 = load ptr, ptr %8, align 8, !tbaa !31
  %81 = call noundef i32 @_ZNK6bufferIjLb0ELj16EE4sizeEv(ptr noundef nonnull align 8 dereferenceable(80) %80)
  %82 = sub i32 %81, 1
  %83 = call noundef nonnull align 4 dereferenceable(4) ptr @_ZN6bufferIjLb0ELj16EEixEj(ptr noundef nonnull align 8 dereferenceable(80) %79, i32 noundef %82)
  %84 = load i32, ptr %83, align 4, !tbaa !10
  %85 = load i32, ptr %9, align 4, !tbaa !10
  %86 = lshr i32 %84, %85
  %87 = load ptr, ptr %10, align 8, !tbaa !8
  %88 = load ptr, ptr %8, align 8, !tbaa !31
  %89 = call noundef i32 @_ZNK6bufferIjLb0ELj16EE4sizeEv(ptr noundef nonnull align 8 dereferenceable(80) %88)
  %90 = sub i32 %89, 1
  %91 = zext i32 %90 to i64
  %92 = getelementptr inbounds nuw i32, ptr %87, i64 %91
  store i32 %86, ptr %92, align 4, !tbaa !10
  br label %93

93:                                               ; preds = %78, %34
  ret void
}