; Function Attrs: mustprogress nofree norecurse nosync nounwind memory(read, argmem: readwrite, inaccessiblemem: none) uwtable
define hidden void @_ZNK11mpn_manager15div_unnormalizeER7sbufferIjLj16EES2_jPj(ptr noundef nonnull readnone align 1 captures(none) dereferenceable(1) %0, ptr noundef nonnull readonly align 8 captures(none) dereferenceable(80) %1, ptr noundef nonnull readonly align 8 captures(none) dereferenceable(80) %2, i32 noundef %3, ptr noundef writeonly captures(none) %4) local_unnamed_addr #8 align 2 {
  %6 = icmp eq i32 %3, 0
  %7 = getelementptr inbounds nuw i8, ptr %2, i64 8
  %8 = load i32, ptr %7, align 8, !tbaa !20
  br i1 %6, label %.preheader, label %.preheader27

.preheader27:                                     ; preds = %5
  %.not = icmp eq i32 %8, 1
  %.pre = load ptr, ptr %1, align 8, !tbaa !16
  br i1 %.not, label %._crit_edge, label %.lr.ph

.lr.ph:                                           ; preds = %.preheader27
  %9 = sub i32 32, %3
  br label %23

.preheader:                                       ; preds = %5
  %.not31 = icmp eq i32 %8, 0
  br i1 %.not31, label %.loopexit, label %.lr.ph30

.lr.ph30:                                         ; preds = %.preheader
  %10 = load ptr, ptr %1, align 8, !tbaa !16
  br label %11

11:                                               ; preds = %.lr.ph30, %11
  %indvars.iv34 = phi i64 [ 0, %.lr.ph30 ], [ %indvars.iv.next35, %11 ]
  %12 = getelementptr inbounds nuw i32, ptr %10, i64 %indvars.iv34
  %13 = load i32, ptr %12, align 4, !tbaa !3
  %14 = getelementptr inbounds nuw i32, ptr %4, i64 %indvars.iv34
  store i32 %13, ptr %14, align 4, !tbaa !3
  %indvars.iv.next35 = add nuw nsw i64 %indvars.iv34, 1
  %15 = load i32, ptr %7, align 8, !tbaa !20
  %16 = zext i32 %15 to i64
  %17 = icmp samesign ult i64 %indvars.iv.next35, %16
  br i1 %17, label %11, label %.loopexit, !llvm.loop !23

._crit_edge.loopexit:                             ; preds = %23
  %18 = zext i32 %33 to i64
  br label %._crit_edge

._crit_edge:                                      ; preds = %.preheader27, %._crit_edge.loopexit
  %.lcssa = phi i64 [ %18, %._crit_edge.loopexit ], [ 0, %.preheader27 ]
  %19 = getelementptr inbounds nuw i32, ptr %.pre, i64 %.lcssa
  %20 = load i32, ptr %19, align 4, !tbaa !3
  %21 = lshr i32 %20, %3
  %22 = getelementptr inbounds nuw i32, ptr %4, i64 %.lcssa
  store i32 %21, ptr %22, align 4, !tbaa !3
  br label %.loopexit

23:                                               ; preds = %.lr.ph, %23
  %indvars.iv = phi i64 [ 0, %.lr.ph ], [ %indvars.iv.next, %23 ]
  %24 = getelementptr inbounds nuw i32, ptr %.pre, i64 %indvars.iv
  %25 = load i32, ptr %24, align 4, !tbaa !3
  %26 = lshr i32 %25, %3
  %indvars.iv.next = add nuw nsw i64 %indvars.iv, 1
  %27 = getelementptr inbounds nuw i32, ptr %.pre, i64 %indvars.iv.next
  %28 = load i32, ptr %27, align 4, !tbaa !3
  %29 = shl i32 %28, %9
  %30 = or disjoint i32 %29, %26
  %31 = getelementptr inbounds nuw i32, ptr %4, i64 %indvars.iv
  store i32 %30, ptr %31, align 4, !tbaa !3
  %32 = load i32, ptr %7, align 8, !tbaa !20
  %33 = add i32 %32, -1
  %34 = zext i32 %33 to i64
  %35 = icmp samesign ult i64 %indvars.iv.next, %34
  br i1 %35, label %23, label %._crit_edge.loopexit, !llvm.loop !24

.loopexit:                                        ; preds = %11, %.preheader, %._crit_edge
  ret void
}